target datalayout = "e-m:e-p270:32:32-p271:32:32-p272:64:64-i64:64-i128:128-f80:128-n8:16:32:64-S128"
target triple = "x86_64-pc-linux-gnu"

%"class.std::filesystem::__cxx11::path" = type { %"class.std::__cxx11::basic_string", %"struct.std::filesystem::__cxx11::path::_List" }
%"class.std::__cxx11::basic_string" = type { %"struct.std::__cxx11::basic_string<char>::_Alloc_hider", i64, %union.anon }
%"struct.std::__cxx11::basic_string<char>::_Alloc_hider" = type { ptr }
%union.anon = type { i64, [8 x i8] }
%"struct.std::filesystem::__cxx11::path::_List" = type { %"class.std::unique_ptr.24" }
%"class.std::unique_ptr.24" = type { %"struct.std::__uniq_ptr_data.25" }
%"struct.std::__uniq_ptr_data.25" = type { %"class.std::__uniq_ptr_impl.26" }
%"class.std::__uniq_ptr_impl.26" = type { %"class.std::tuple.27" }
%"class.std::tuple.27" = type { %"struct.std::_Tuple_impl.28" }
%"struct.std::_Tuple_impl.28" = type { %"struct.std::_Head_base.31" }
%"struct.std::_Head_base.31" = type { ptr }
%"class.nix::ref" = type { %"class.std::shared_ptr.17" }
%"class.std::shared_ptr.17" = type { %"class.std::__shared_ptr.18" }
%"class.std::__shared_ptr.18" = type { ptr, %"class.std::__shared_count" }
%"class.std::__shared_count" = type { ptr }

@__dso_handle = external hidden global i8
@_ZZN3nix15getTarballCacheEvE7repoDirB5cxx11 = internal global %"class.std::filesystem::__cxx11::path" zeroinitializer, align 8
@_ZGVZN3nix15getTarballCacheEvE7repoDirB5cxx11 = internal global i64 0, align 8
@.str.7 = private unnamed_addr constant [4 x i8] c"nix\00", align 1
@.str.8 = private unnamed_addr constant [14 x i8] c"tarball-cache\00", align 1

; Function Attrs: mustprogress uwtable
define void @_ZN3nix15getTarballCacheEv(ptr dead_on_unwind noalias writable sret(%"class.nix::ref") align 8 %0) #5 personality ptr @__gxx_personality_v0 {
  %2 = alloca ptr, align 8
  %3 = alloca %"class.std::filesystem::__cxx11::path", align 8
  %4 = alloca %"class.std::filesystem::__cxx11::path", align 8
  %5 = alloca %"class.std::__cxx11::basic_string", align 8
  %6 = alloca ptr, align 8
  %7 = alloca i32, align 4
  %8 = alloca %"class.std::filesystem::__cxx11::path", align 8
  %9 = alloca %"class.std::filesystem::__cxx11::path", align 8
  store ptr %0, ptr %2, align 8
  %10 = load atomic i8, ptr @_ZGVZN3nix15getTarballCacheEvE7repoDirB5cxx11 acquire, align 8
  %11 = icmp eq i8 %10, 0
  br i1 %11, label %12, label %23, !prof !6

12:                                               ; preds = %1
  %13 = call i32 @__cxa_guard_acquire(ptr @_ZGVZN3nix15getTarballCacheEvE7repoDirB5cxx11) #3
  %14 = icmp ne i32 %13, 0
  br i1 %14, label %15, label %23

15:                                               ; preds = %12
  invoke void @_ZN3nix11getCacheDirB5cxx11Ev(ptr dead_on_unwind writable sret(%"class.std::__cxx11::basic_string") align 8 %5)
          to label %16 unwind label %24

16:                                               ; preds = %15
  invoke void @_ZNSt10filesystem7__cxx114pathC2EONSt7__cxx1112basic_stringIcSt11char_traitsIcESaIcEEENS1_6formatE(ptr noundef nonnull align 8 dereferenceable(40) %4, ptr noundef nonnull align 8 dereferenceable(32) %5, i8 noundef zeroext 2)
          to label %17 unwind label %28

17:                                               ; preds = %16
  invoke void @_ZNSt10filesystem7__cxx114pathC2IA4_cS1_EERKT_NS1_6formatE(ptr noundef nonnull align 8 dereferenceable(40) %8, ptr noundef nonnull align 1 dereferenceable(4) @.str.7, i8 noundef zeroext 2)
          to label %18 unwind label %32

18:                                               ; preds = %17
  invoke void @_ZNSt10filesystem7__cxx11dvERKNS0_4pathES3_(ptr dead_on_unwind writable sret(%"class.std::filesystem::__cxx11::path") align 8 %3, ptr noundef nonnull align 8 dereferenceable(40) %4, ptr noundef nonnull align 8 dereferenceable(40) %8)
          to label %19 unwind label %36

19:                                               ; preds = %18
  invoke void @_ZNSt10filesystem7__cxx114pathC2IA14_cS1_EERKT_NS1_6formatE(ptr noundef nonnull align 8 dereferenceable(40) %9, ptr noundef nonnull align 1 dereferenceable(14) @.str.8, i8 noundef zeroext 2)
          to label %20 unwind label %40

20:                                               ; preds = %19
  invoke void @_ZNSt10filesystem7__cxx11dvERKNS0_4pathES3_(ptr dead_on_unwind writable sret(%"class.std::filesystem::__cxx11::path") align 8 @_ZZN3nix15getTarballCacheEvE7repoDirB5cxx11, ptr noundef nonnull align 8 dereferenceable(40) %3, ptr noundef nonnull align 8 dereferenceable(40) %9)
          to label %21 unwind label %44

21:                                               ; preds = %20
  call void @_ZNSt10filesystem7__cxx114pathD2Ev(ptr noundef nonnull align 8 dereferenceable(40) %9) #3
  call void @_ZNSt10filesystem7__cxx114pathD2Ev(ptr noundef nonnull align 8 dereferenceable(40) %3) #3
  call void @_ZNSt10filesystem7__cxx114pathD2Ev(ptr noundef nonnull align 8 dereferenceable(40) %8) #3
  call void @_ZNSt10filesystem7__cxx114pathD2Ev(ptr noundef nonnull align 8 dereferenceable(40) %4) #3
  call void @_ZNSt7__cxx1112basic_stringIcSt11char_traitsIcESaIcEED2Ev(ptr noundef nonnull align 8 dereferenceable(32) %5) #3
  %22 = call i32 @__cxa_atexit(ptr @_ZNSt10filesystem7__cxx114pathD2Ev, ptr @_ZZN3nix15getTarballCacheEvE7repoDirB5cxx11, ptr @__dso_handle) #3
  call void @__cxa_guard_release(ptr @_ZGVZN3nix15getTarballCacheEvE7repoDirB5cxx11) #3
  br label %23

23:                                               ; preds = %21, %12, %1
  call void @_ZN3nix7GitRepo8openRepoERKNSt10filesystem7__cxx114pathEbb(ptr dead_on_unwind writable sret(%"class.nix::ref") align 8 %0, ptr noundef nonnull align 8 dereferenceable(40) @_ZZN3nix15getTarballCacheEvE7repoDirB5cxx11, i1 noundef zeroext true, i1 noundef zeroext true)
  ret void

24:                                               ; preds = %15
  %25 = landingpad { ptr, i32 }
          cleanup
  %26 = extractvalue { ptr, i32 } %25, 0
  store ptr %26, ptr %6, align 8
  %27 = extractvalue { ptr, i32 } %25, 1
  store i32 %27, ptr %7, align 4
  br label %52

28:                                               ; preds = %16
  %29 = landingpad { ptr, i32 }
          cleanup
  %30 = extractvalue { ptr, i32 } %29, 0
  store ptr %30, ptr %6, align 8
  %31 = extractvalue { ptr, i32 } %29, 1
  store i32 %31, ptr %7, align 4
  br label %51

32:                                               ; preds = %17
  %33 = landingpad { ptr, i32 }
          cleanup
  %34 = extractvalue { ptr, i32 } %33, 0
  store ptr %34, ptr %6, align 8
  %35 = extractvalue { ptr, i32 } %33, 1
  store i32 %35, ptr %7, align 4
  br label %50

36:                                               ; preds = %18
  %37 = landingpad { ptr, i32 }
          cleanup
  %38 = extractvalue { ptr, i32 } %37, 0
  store ptr %38, ptr %6, align 8
  %39 = extractvalue { ptr, i32 } %37, 1
  store i32 %39, ptr %7, align 4
  br label %49

40:                                               ; preds = %19
  %41 = landingpad { ptr, i32 }
          cleanup
  %42 = extractvalue { ptr, i32 } %41, 0
  store ptr %42, ptr %6, align 8
  %43 = extractvalue { ptr, i32 } %41, 1
  store i32 %43, ptr %7, align 4
  br label %48

44:                                               ; preds = %20
  %45 = landingpad { ptr, i32 }
          cleanup
  %46 = extractvalue { ptr, i32 } %45, 0
  store ptr %46, ptr %6, align 8
  %47 = extractvalue { ptr, i32 } %45, 1
  store i32 %47, ptr %7, align 4
  call void @_ZNSt10filesystem7__cxx114pathD2Ev(ptr noundef nonnull align 8 dereferenceable(40) %9) #3
  br label %48

48:                                               ; preds = %44, %40
  call void @_ZNSt10filesystem7__cxx114pathD2Ev(ptr noundef nonnull align 8 dereferenceable(40) %3) #3
  br label %49

49:                                               ; preds = %48, %36
  call void @_ZNSt10filesystem7__cxx114pathD2Ev(ptr noundef nonnull align 8 dereferenceable(40) %8) #3
  br label %50

50:                                               ; preds = %49, %32
  call void @_ZNSt10filesystem7__cxx114pathD2Ev(ptr noundef nonnull align 8 dereferenceable(40) %4) #3
  br label %51

51:                                               ; preds = %50, %28
  call void @_ZNSt7__cxx1112basic_stringIcSt11char_traitsIcESaIcEED2Ev(ptr noundef nonnull align 8 dereferenceable(32) %5) #3
  br label %52

52:                                               ; preds = %51, %24
  call void @__cxa_guard_abort(ptr @_ZGVZN3nix15getTarballCacheEvE7repoDirB5cxx11) #3
  br label %53

53:                                               ; preds = %52
  %54 = load ptr, ptr %6, align 8
  %55 = load i32, ptr %7, align 4
  %56 = insertvalue { ptr, i32 } poison, ptr %54, 0
  %57 = insertvalue { ptr, i32 } %56, i32 %55, 1
  resume { ptr, i32 } %57
}