; Function Attrs: mustprogress uwtable
define void @_ZN3nix15getTarballCacheEv(ptr dead_on_unwind noalias writable sret(%"class.nix::ref") align 8 %0) local_unnamed_addr #4 personality ptr @__gxx_personality_v0 {
  %2 = alloca %"class.std::filesystem::__cxx11::path", align 8
  %3 = alloca %"class.std::filesystem::__cxx11::path", align 8
  %4 = alloca %"class.std::__cxx11::basic_string", align 8
  %5 = alloca %"class.std::filesystem::__cxx11::path", align 8
  %6 = alloca %"class.std::filesystem::__cxx11::path", align 8
  %7 = load atomic i8, ptr @_ZGVZN3nix15getTarballCacheEvE7repoDirB5cxx11 acquire, align 8
  %8 = icmp eq i8 %7, 0
  br i1 %8, label %9, label %19, !prof !46

9:                                                ; preds = %1
  %10 = tail call i32 @__cxa_guard_acquire(ptr nonnull @_ZGVZN3nix15getTarballCacheEvE7repoDirB5cxx11) #25
  %.not = icmp eq i32 %10, 0
  br i1 %.not, label %19, label %11

11:                                               ; preds = %9
  invoke void @_ZN3nix11getCacheDirB5cxx11Ev(ptr dead_on_unwind nonnull writable sret(%"class.std::__cxx11::basic_string") align 8 %4)
          to label %12 unwind label %20

12:                                               ; preds = %11
  invoke void @_ZNSt10filesystem7__cxx114pathC2EONSt7__cxx1112basic_stringIcSt11char_traitsIcESaIcEEENS1_6formatE(ptr noundef nonnull align 8 dereferenceable(40) %3, ptr noundef nonnull align 8 dereferenceable(32) %4, i8 noundef zeroext 2)
          to label %13 unwind label %22

13:                                               ; preds = %12
  invoke void @_ZNSt10filesystem7__cxx114pathC2IA4_cS1_EERKT_NS1_6formatE(ptr noundef nonnull align 8 dereferenceable(40) %5, ptr noundef nonnull align 1 dereferenceable(4) @.str.7, i8 noundef zeroext 2)
          to label %14 unwind label %24

14:                                               ; preds = %13
  invoke void @_ZNSt10filesystem7__cxx11dvERKNS0_4pathES3_(ptr dead_on_unwind nonnull writable sret(%"class.std::filesystem::__cxx11::path") align 8 %2, ptr noundef nonnull align 8 dereferenceable(40) %3, ptr noundef nonnull align 8 dereferenceable(40) %5)
          to label %15 unwind label %26

15:                                               ; preds = %14
  invoke void @_ZNSt10filesystem7__cxx114pathC2IA14_cS1_EERKT_NS1_6formatE(ptr noundef nonnull align 8 dereferenceable(40) %6, ptr noundef nonnull align 1 dereferenceable(14) @.str.8, i8 noundef zeroext 2)
          to label %16 unwind label %28

16:                                               ; preds = %15
  invoke void @_ZNSt10filesystem7__cxx11dvERKNS0_4pathES3_(ptr dead_on_unwind nonnull writable sret(%"class.std::filesystem::__cxx11::path") align 8 @_ZZN3nix15getTarballCacheEvE7repoDirB5cxx11, ptr noundef nonnull align 8 dereferenceable(40) %2, ptr noundef nonnull align 8 dereferenceable(40) %6)
          to label %17 unwind label %30

17:                                               ; preds = %16
  call void @_ZNSt10filesystem7__cxx114pathD2Ev(ptr noundef nonnull align 8 dereferenceable(40) %6) #25
  call void @_ZNSt10filesystem7__cxx114pathD2Ev(ptr noundef nonnull align 8 dereferenceable(40) %2) #25
  call void @_ZNSt10filesystem7__cxx114pathD2Ev(ptr noundef nonnull align 8 dereferenceable(40) %5) #25
  call void @_ZNSt10filesystem7__cxx114pathD2Ev(ptr noundef nonnull align 8 dereferenceable(40) %3) #25
  call void @_ZNSt7__cxx1112basic_stringIcSt11char_traitsIcESaIcEED2Ev(ptr noundef nonnull align 8 dereferenceable(32) %4) #25
  %18 = call i32 @__cxa_atexit(ptr nonnull @_ZNSt10filesystem7__cxx114pathD2Ev, ptr nonnull @_ZZN3nix15getTarballCacheEvE7repoDirB5cxx11, ptr nonnull @__dso_handle) #25
  call void @__cxa_guard_release(ptr nonnull @_ZGVZN3nix15getTarballCacheEvE7repoDirB5cxx11) #25
  br label %19

19:                                               ; preds = %17, %9, %1
  call void @_ZN3nix7GitRepo8openRepoERKNSt10filesystem7__cxx114pathEbb(ptr dead_on_unwind writable sret(%"class.nix::ref") align 8 %0, ptr noundef nonnull align 8 dereferenceable(40) @_ZZN3nix15getTarballCacheEvE7repoDirB5cxx11, i1 noundef zeroext true, i1 noundef zeroext true)
  ret void

20:                                               ; preds = %11
  %21 = landingpad { ptr, i32 }
          cleanup
  br label %36

22:                                               ; preds = %12
  %23 = landingpad { ptr, i32 }
          cleanup
  br label %35

24:                                               ; preds = %13
  %25 = landingpad { ptr, i32 }
          cleanup
  br label %34

26:                                               ; preds = %14
  %27 = landingpad { ptr, i32 }
          cleanup
  br label %33

28:                                               ; preds = %15
  %29 = landingpad { ptr, i32 }
          cleanup
  br label %32

30:                                               ; preds = %16
  %31 = landingpad { ptr, i32 }
          cleanup
  call void @_ZNSt10filesystem7__cxx114pathD2Ev(ptr noundef nonnull align 8 dereferenceable(40) %6) #25
  br label %32

32:                                               ; preds = %30, %28
  %.pn = phi { ptr, i32 } [ %31, %30 ], [ %29, %28 ]
  call void @_ZNSt10filesystem7__cxx114pathD2Ev(ptr noundef nonnull align 8 dereferenceable(40) %2) #25
  br label %33

33:                                               ; preds = %32, %26
  %.pn.pn = phi { ptr, i32 } [ %.pn, %32 ], [ %27, %26 ]
  call void @_ZNSt10filesystem7__cxx114pathD2Ev(ptr noundef nonnull align 8 dereferenceable(40) %5) #25
  br label %34

34:                                               ; preds = %33, %24
  %.pn.pn.pn = phi { ptr, i32 } [ %.pn.pn, %33 ], [ %25, %24 ]
  call void @_ZNSt10filesystem7__cxx114pathD2Ev(ptr noundef nonnull align 8 dereferenceable(40) %3) #25
  br label %35

35:                                               ; preds = %34, %22
  %.pn.pn.pn.pn = phi { ptr, i32 } [ %.pn.pn.pn, %34 ], [ %23, %22 ]
  call void @_ZNSt7__cxx1112basic_stringIcSt11char_traitsIcESaIcEED2Ev(ptr noundef nonnull align 8 dereferenceable(32) %4) #25
  br label %36

36:                                               ; preds = %35, %20
  %.pn.pn.pn.pn.pn = phi { ptr, i32 } [ %.pn.pn.pn.pn, %35 ], [ %21, %20 ]
  call void @__cxa_guard_abort(ptr nonnull @_ZGVZN3nix15getTarballCacheEvE7repoDirB5cxx11) #25
  resume { ptr, i32 } %.pn.pn.pn.pn.pn
}